target datalayout = "e-m:e-p270:32:32-p271:32:32-p272:64:64-i64:64-i128:128-f80:128-n8:16:32:64-S128"
target triple = "x86_64-pc-linux-gnu"

%"class.rocksdb::ManagedSnapshot" = type { ptr, ptr }

$__clang_call_terminate = comdat any

@_ZN7rocksdb15ManagedSnapshotC1EPNS_2DBE = unnamed_addr alias void (ptr, ptr), ptr @_ZN7rocksdb15ManagedSnapshotC2EPNS_2DBE
@_ZN7rocksdb15ManagedSnapshotC1EPNS_2DBEPKNS_8SnapshotE = unnamed_addr alias void (ptr, ptr, ptr), ptr @_ZN7rocksdb15ManagedSnapshotC2EPNS_2DBEPKNS_8SnapshotE
@_ZN7rocksdb15ManagedSnapshotD1Ev = unnamed_addr alias void (ptr), ptr @_ZN7rocksdb15ManagedSnapshotD2Ev

; Function Attrs: mustprogress uwtable
define void @_ZN7rocksdb15ManagedSnapshotC2EPNS_2DBE(ptr noundef nonnull align 8 dereferenceable(16) %0, ptr noundef %1) unnamed_addr #0 align 2 {
  %3 = alloca ptr, align 8
  %4 = alloca ptr, align 8
  store ptr %0, ptr %3, align 8, !tbaa !4
  store ptr %1, ptr %4, align 8, !tbaa !9
  %5 = load ptr, ptr %3, align 8
  %6 = getelementptr inbounds nuw %"class.rocksdb::ManagedSnapshot", ptr %5, i32 0, i32 0
  %7 = load ptr, ptr %4, align 8, !tbaa !9
  store ptr %7, ptr %6, align 8, !tbaa !11
  %8 = getelementptr inbounds nuw %"class.rocksdb::ManagedSnapshot", ptr %5, i32 0, i32 1
  %9 = load ptr, ptr %4, align 8, !tbaa !9
  %10 = load ptr, ptr %9, align 8, !tbaa !14
  %11 = getelementptr inbounds ptr, ptr %10, i64 62
  %12 = load ptr, ptr %11, align 8
  %13 = call noundef ptr %12(ptr noundef nonnull align 8 dereferenceable(8) %9)
  store ptr %13, ptr %8, align 8, !tbaa !16
  ret void
}

; Function Attrs: mustprogress nounwind uwtable
define void @_ZN7rocksdb15ManagedSnapshotC2EPNS_2DBEPKNS_8SnapshotE(ptr noundef nonnull align 8 dereferenceable(16) %0, ptr noundef %1, ptr noundef %2) unnamed_addr #1 align 2 {
  %4 = alloca ptr, align 8
  %5 = alloca ptr, align 8
  %6 = alloca ptr, align 8
  store ptr %0, ptr %4, align 8, !tbaa !4
  store ptr %1, ptr %5, align 8, !tbaa !9
  store ptr %2, ptr %6, align 8, !tbaa !17
  %7 = load ptr, ptr %4, align 8
  %8 = getelementptr inbounds nuw %"class.rocksdb::ManagedSnapshot", ptr %7, i32 0, i32 0
  %9 = load ptr, ptr %5, align 8, !tbaa !9
  store ptr %9, ptr %8, align 8, !tbaa !11
  %10 = getelementptr inbounds nuw %"class.rocksdb::ManagedSnapshot", ptr %7, i32 0, i32 1
  %11 = load ptr, ptr %6, align 8, !tbaa !17
  store ptr %11, ptr %10, align 8, !tbaa !16
  ret void
}

; Function Attrs: mustprogress nounwind uwtable
define void @_ZN7rocksdb15ManagedSnapshotD2Ev(ptr noundef nonnull align 8 dereferenceable(16) %0) unnamed_addr #1 align 2 personality ptr @__gxx_personality_v0 {
  %2 = alloca ptr, align 8
  store ptr %0, ptr %2, align 8, !tbaa !4
  %3 = load ptr, ptr %2, align 8
  %4 = getelementptr inbounds nuw %"class.rocksdb::ManagedSnapshot", ptr %3, i32 0, i32 1
  %5 = load ptr, ptr %4, align 8, !tbaa !16
  %6 = icmp ne ptr %5, null
  br i1 %6, label %7, label %16

7:                                                ; preds = %1
  %8 = getelementptr inbounds nuw %"class.rocksdb::ManagedSnapshot", ptr %3, i32 0, i32 0
  %9 = load ptr, ptr %8, align 8, !tbaa !11
  %10 = getelementptr inbounds nuw %"class.rocksdb::ManagedSnapshot", ptr %3, i32 0, i32 1
  %11 = load ptr, ptr %10, align 8, !tbaa !16
  %12 = load ptr, ptr %9, align 8, !tbaa !14
  %13 = getelementptr inbounds ptr, ptr %12, i64 63
  %14 = load ptr, ptr %13, align 8
  invoke void %14(ptr noundef nonnull align 8 dereferenceable(8) %9, ptr noundef %11)
          to label %15 unwind label %17

15:                                               ; preds = %7
  br label %16

16:                                               ; preds = %15, %1
  ret void

17:                                               ; preds = %7
  %18 = landingpad { ptr, i32 }
          catch ptr null
  %19 = extractvalue { ptr, i32 } %18, 0
  call void @__clang_call_terminate(ptr %19) #3
  unreachable
}

declare i32 @__gxx_personality_v0(...)

; Function Attrs: noinline noreturn nounwind uwtable
define linkonce_odr hidden void @__clang_call_terminate(ptr noundef %0) #2 comdat {
  %2 = call ptr @__cxa_begin_catch(ptr %0) #4
  call void @_ZSt9terminatev() #3
  unreachable
}

declare ptr @__cxa_begin_catch(ptr)

declare void @_ZSt9terminatev()

; Function Attrs: mustprogress nounwind uwtable
define noundef ptr @_ZN7rocksdb15ManagedSnapshot8snapshotEv(ptr noundef nonnull align 8 dereferenceable(16) %0) #1 align 2 {
  %2 = alloca ptr, align 8
  store ptr %0, ptr %2, align 8, !tbaa !4
  %3 = load ptr, ptr %2, align 8
  %4 = getelementptr inbounds nuw %"class.rocksdb::ManagedSnapshot", ptr %3, i32 0, i32 1
  %5 = load ptr, ptr %4, align 8, !tbaa !16
  ret ptr %5
}


!llvm.module.flags = !{!0, !1, !2, !3}

!0 = !{i32 1, !"wchar_size", i32 4}
!1 = !{i32 8, !"PIC Level", i32 2}
!2 = !{i32 7, !"uwtable", i32 2}
!3 = !{i32 7, !"frame-pointer", i32 1}
!4 = !{!5, !5, i64 0}
!5 = !{!"p1 _ZTSN7rocksdb15ManagedSnapshotE", !6, i64 0}
!6 = !{!"any pointer", !7, i64 0}
!7 = !{!"omnipotent char", !8, i64 0}
!8 = !{!"Simple C++ TBAA"}
!9 = !{!10, !10, i64 0}
!10 = !{!"p1 _ZTSN7rocksdb2DBE", !6, i64 0}
!11 = !{!12, !10, i64 0}
!12 = !{!"_ZTSN7rocksdb15ManagedSnapshotE", !10, i64 0, !13, i64 8}
!13 = !{!"p1 _ZTSN7rocksdb8SnapshotE", !6, i64 0}
!14 = !{!15, !15, i64 0}
!15 = !{!"vtable pointer", !8, i64 0}
!16 = !{!12, !13, i64 8}
!17 = !{!13, !13, i64 0}
