; ModuleID = 'bench/rocksdb/original/snapshot_impl.ll'
source_filename = "bench/rocksdb/original/snapshot_impl.ll"
target datalayout = "e-m:e-p270:32:32-p271:32:32-p272:64:64-i64:64-i128:128-f80:128-n8:16:32:64-S128"
target triple = "x86_64-pc-linux-gnu"

$__clang_call_terminate = comdat any

@_ZN7rocksdb15ManagedSnapshotC1EPNS_2DBE = unnamed_addr alias void (ptr, ptr), ptr @_ZN7rocksdb15ManagedSnapshotC2EPNS_2DBE
@_ZN7rocksdb15ManagedSnapshotC1EPNS_2DBEPKNS_8SnapshotE = unnamed_addr alias void (ptr, ptr, ptr), ptr @_ZN7rocksdb15ManagedSnapshotC2EPNS_2DBEPKNS_8SnapshotE
@_ZN7rocksdb15ManagedSnapshotD1Ev = unnamed_addr alias void (ptr), ptr @_ZN7rocksdb15ManagedSnapshotD2Ev

; Function Attrs: mustprogress uwtable
define void @_ZN7rocksdb15ManagedSnapshotC2EPNS_2DBE(ptr noundef nonnull writeonly align 8 captures(none) dereferenceable(16) initializes((0, 16)) %0, ptr noundef %1) unnamed_addr #0 align 2 {
  store ptr %1, ptr %0, align 8, !tbaa !4
  %3 = getelementptr inbounds nuw i8, ptr %0, i64 8
  %4 = load ptr, ptr %1, align 8, !tbaa !11
  %5 = getelementptr inbounds nuw i8, ptr %4, i64 496
  %6 = load ptr, ptr %5, align 8
  %7 = tail call noundef ptr %6(ptr noundef nonnull align 8 dereferenceable(8) %1)
  store ptr %7, ptr %3, align 8, !tbaa !13
  ret void
}

; Function Attrs: mustprogress nofree norecurse nosync nounwind willreturn memory(argmem: write) uwtable
define void @_ZN7rocksdb15ManagedSnapshotC2EPNS_2DBEPKNS_8SnapshotE(ptr noundef nonnull writeonly align 8 captures(none) dereferenceable(16) initializes((0, 16)) %0, ptr noundef %1, ptr noundef %2) unnamed_addr #1 align 2 {
  store ptr %1, ptr %0, align 8, !tbaa !4
  %4 = getelementptr inbounds nuw i8, ptr %0, i64 8
  store ptr %2, ptr %4, align 8, !tbaa !13
  ret void
}

; Function Attrs: mustprogress nounwind uwtable
define void @_ZN7rocksdb15ManagedSnapshotD2Ev(ptr noundef nonnull readonly align 8 captures(none) dereferenceable(16) %0) unnamed_addr #2 align 2 personality ptr @__gxx_personality_v0 {
  %2 = getelementptr inbounds nuw i8, ptr %0, i64 8
  %3 = load ptr, ptr %2, align 8, !tbaa !13
  %.not = icmp eq ptr %3, null
  br i1 %.not, label %9, label %4

4:                                                ; preds = %1
  %5 = load ptr, ptr %0, align 8, !tbaa !4
  %6 = load ptr, ptr %5, align 8, !tbaa !11
  %7 = getelementptr inbounds nuw i8, ptr %6, i64 504
  %8 = load ptr, ptr %7, align 8
  invoke void %8(ptr noundef nonnull align 8 dereferenceable(8) %5, ptr noundef nonnull %3)
          to label %9 unwind label %10

9:                                                ; preds = %4, %1
  ret void

10:                                               ; preds = %4
  %11 = landingpad { ptr, i32 }
          catch ptr null
  %12 = extractvalue { ptr, i32 } %11, 0
  tail call void @__clang_call_terminate(ptr %12) #6
  unreachable
}

declare i32 @__gxx_personality_v0(...)

; Function Attrs: noinline noreturn nounwind uwtable
define linkonce_odr hidden void @__clang_call_terminate(ptr noundef %0) local_unnamed_addr #3 comdat {
  %2 = tail call ptr @__cxa_begin_catch(ptr %0) #7
  tail call void @_ZSt9terminatev() #6
  unreachable
}

declare ptr @__cxa_begin_catch(ptr) local_unnamed_addr

; Function Attrs: cold nofree noreturn
declare void @_ZSt9terminatev() local_unnamed_addr #4

; Function Attrs: mustprogress nofree norecurse nosync nounwind willreturn memory(argmem: read) uwtable
define noundef ptr @_ZN7rocksdb15ManagedSnapshot8snapshotEv(ptr noundef nonnull readonly align 8 captures(none) dereferenceable(16) %0) local_unnamed_addr #5 align 2 {
  %2 = getelementptr inbounds nuw i8, ptr %0, i64 8
  %3 = load ptr, ptr %2, align 8, !tbaa !13
  ret ptr %3
}


!llvm.module.flags = !{!0, !1, !2, !3}

!0 = !{i32 1, !"wchar_size", i32 4}
!1 = !{i32 8, !"PIC Level", i32 2}
!2 = !{i32 7, !"uwtable", i32 2}
!3 = !{i32 7, !"frame-pointer", i32 1}
!4 = !{!5, !6, i64 0}
!5 = !{!"_ZTSN7rocksdb15ManagedSnapshotE", !6, i64 0, !10, i64 8}
!6 = !{!"p1 _ZTSN7rocksdb2DBE", !7, i64 0}
!7 = !{!"any pointer", !8, i64 0}
!8 = !{!"omnipotent char", !9, i64 0}
!9 = !{!"Simple C++ TBAA"}
!10 = !{!"p1 _ZTSN7rocksdb8SnapshotE", !7, i64 0}
!11 = !{!12, !12, i64 0}
!12 = !{!"vtable pointer", !9, i64 0}
!13 = !{!5, !10, i64 8}
